target datalayout = "e-m:e-p270:32:32-p271:32:32-p272:64:64-i64:64-i128:128-f80:128-n8:16:32:64-S128"
target triple = "x86_64-pc-linux-gnu"

%"class.cvc5::internal::DTypeSelector" = type <{ %"class.std::__cxx11::basic_string", %"class.cvc5::internal::NodeTemplate", %"class.cvc5::internal::NodeTemplate", %"class.cvc5::internal::NodeTemplate", i8, [7 x i8] }>
%"class.std::__cxx11::basic_string" = type { %"struct.std::__cxx11::basic_string<char>::_Alloc_hider", i64, %union.anon }
%"struct.std::__cxx11::basic_string<char>::_Alloc_hider" = type { ptr }
%union.anon = type { i64, [8 x i8] }
%"class.cvc5::internal::NodeTemplate" = type { ptr }
%"class.cvc5::internal::TypeNode" = type { ptr }

; Function Attrs: mustprogress uwtable
define hidden void @_ZNK4cvc58internal13DTypeSelector7getTypeEv(ptr dead_on_unwind noalias writable sret(%"class.cvc5::internal::TypeNode") align 8 %0, ptr noundef nonnull align 8 dereferenceable(57) %1) #4 align 2 {
  %3 = alloca ptr, align 8
  %4 = alloca ptr, align 8
  store ptr %0, ptr %3, align 8
  store ptr %1, ptr %4, align 8, !tbaa !3
  %5 = load ptr, ptr %4, align 8
  %6 = getelementptr inbounds nuw %"class.cvc5::internal::DTypeSelector", ptr %5, i32 0, i32 1
  call void @_ZNK4cvc58internal12NodeTemplateILb1EE7getTypeEb(ptr dead_on_unwind writable sret(%"class.cvc5::internal::TypeNode") align 8 %0, ptr noundef nonnull align 8 dereferenceable(8) %6, i1 noundef zeroext false)
  ret void
}

; Function Attrs: mustprogress uwtable
define hidden void @_ZNK4cvc58internal13DTypeSelector12getRangeTypeEv(ptr dead_on_unwind noalias writable sret(%"class.cvc5::internal::TypeNode") align 8 %0, ptr noundef nonnull align 8 dereferenceable(57) %1) #4 align 2 personality ptr @__gxx_personality_v0 {
  %3 = alloca ptr, align 8
  %4 = alloca ptr, align 8
  %5 = alloca %"class.cvc5::internal::TypeNode", align 8
  %6 = alloca ptr, align 8
  %7 = alloca i32, align 4
  store ptr %0, ptr %3, align 8
  store ptr %1, ptr %4, align 8, !tbaa !3
  %8 = load ptr, ptr %4, align 8
  call void @llvm.lifetime.start.p0(i64 8, ptr %5) #3
  call void @_ZNK4cvc58internal13DTypeSelector7getTypeEv(ptr dead_on_unwind writable sret(%"class.cvc5::internal::TypeNode") align 8 %5, ptr noundef nonnull align 8 dereferenceable(57) %8)
  invoke void @_ZNK4cvc58internal8TypeNode12getRangeTypeEv(ptr dead_on_unwind writable sret(%"class.cvc5::internal::TypeNode") align 8 %0, ptr noundef nonnull align 8 dereferenceable(8) %5)
          to label %9 unwind label %10

9:                                                ; preds = %2
  call void @_ZN4cvc58internal8TypeNodeD2Ev(ptr noundef nonnull align 8 dereferenceable(8) %5) #3
  call void @llvm.lifetime.end.p0(i64 8, ptr %5) #3
  ret void

10:                                               ; preds = %2
  %11 = landingpad { ptr, i32 }
          cleanup
  %12 = extractvalue { ptr, i32 } %11, 0
  store ptr %12, ptr %6, align 8
  %13 = extractvalue { ptr, i32 } %11, 1
  store i32 %13, ptr %7, align 4
  call void @_ZN4cvc58internal8TypeNodeD2Ev(ptr noundef nonnull align 8 dereferenceable(8) %5) #3
  call void @llvm.lifetime.end.p0(i64 8, ptr %5) #3
  br label %14

14:                                               ; preds = %10
  %15 = load ptr, ptr %6, align 8
  %16 = load i32, ptr %7, align 4
  %17 = insertvalue { ptr, i32 } poison, ptr %15, 0
  %18 = insertvalue { ptr, i32 } %17, i32 %16, 1
  resume { ptr, i32 } %18
}